; Function Attrs: mustprogress nofree norecurse nosync nounwind willreturn memory(argmem: readwrite) uwtable
define internal void @callReplyBigNumber(ptr noundef captures(none) initializes((16, 36), (40, 56)) %0, ptr noundef %1, i64 noundef %2, ptr noundef %3, i64 noundef %4) #5 {
  %6 = getelementptr inbounds nuw i8, ptr %0, i64 32
  store i32 9, ptr %6, align 8, !tbaa !15
  %7 = getelementptr inbounds nuw i8, ptr %0, i64 16
  store ptr %3, ptr %7, align 8, !tbaa !25
  %8 = getelementptr inbounds nuw i8, ptr %0, i64 24
  store i64 %4, ptr %8, align 8, !tbaa !34
  %9 = getelementptr inbounds nuw i8, ptr %0, i64 36
  %10 = load i32, ptr %9, align 4, !tbaa !5
  %11 = or i32 %10, 4
  store i32 %11, ptr %9, align 4, !tbaa !5
  %12 = getelementptr inbounds nuw i8, ptr %0, i64 40
  store i64 %2, ptr %12, align 8, !tbaa !18
  %13 = getelementptr inbounds nuw i8, ptr %0, i64 48
  store ptr %1, ptr %13, align 8, !tbaa !19
  ret void
}